target datalayout = "e-m:e-p270:32:32-p271:32:32-p272:64:64-i64:64-i128:128-f80:128-n8:16:32:64-S128"
target triple = "x86_64-pc-linux-gnu"

%struct.dt_image_import_t = type { i32, ptr }

@.str.1 = private unnamed_addr constant [13 x i8] c"import image\00", align 1

; Function Attrs: nounwind uwtable
define ptr @dt_image_import_job_create(i32 noundef %0, ptr noundef %1) #0 {
  %3 = alloca ptr, align 8
  %4 = alloca i32, align 4
  %5 = alloca ptr, align 8
  %6 = alloca ptr, align 8
  %7 = alloca ptr, align 8
  %8 = alloca i32, align 4
  store i32 %0, ptr %4, align 4, !tbaa !6
  store ptr %1, ptr %5, align 8, !tbaa !63
  call void @llvm.lifetime.start.p0(i64 8, ptr %6) #6
  call void @llvm.lifetime.start.p0(i64 8, ptr %7) #6
  %9 = call ptr (ptr, ptr, ...) @dt_control_job_create(ptr noundef @dt_image_import_job_run, ptr noundef @.str.1)
  store ptr %9, ptr %7, align 8, !tbaa !10
  %10 = load ptr, ptr %7, align 8, !tbaa !10
  %11 = icmp ne ptr %10, null
  br i1 %11, label %13, label %12

12:                                               ; preds = %2
  store ptr null, ptr %3, align 8
  store i32 1, ptr %8, align 4
  br label %32

13:                                               ; preds = %2
  %14 = call noalias ptr @calloc(i64 noundef 1, i64 noundef 16) #7
  store ptr %14, ptr %6, align 8, !tbaa !64
  %15 = load ptr, ptr %6, align 8, !tbaa !64
  %16 = icmp ne ptr %15, null
  br i1 %16, label %19, label %17

17:                                               ; preds = %13
  %18 = load ptr, ptr %7, align 8, !tbaa !10
  call void @dt_control_job_dispose(ptr noundef %18)
  store ptr null, ptr %3, align 8
  store i32 1, ptr %8, align 4
  br label %32

19:                                               ; preds = %13
  %20 = load ptr, ptr %7, align 8, !tbaa !10
  %21 = call ptr @dcgettext(ptr noundef null, ptr noundef @.str.1, i32 noundef 5) #6
  call void @dt_control_job_add_progress(ptr noundef %20, ptr noundef %21, i32 noundef 0)
  %22 = load ptr, ptr %7, align 8, !tbaa !10
  %23 = load ptr, ptr %6, align 8, !tbaa !64
  call void @dt_control_job_set_params(ptr noundef %22, ptr noundef %23, ptr noundef @dt_image_import_job_cleanup)
  %24 = load ptr, ptr %5, align 8, !tbaa !63
  %25 = call noalias ptr @g_strdup(ptr noundef %24)
  %26 = load ptr, ptr %6, align 8, !tbaa !64
  %27 = getelementptr inbounds nuw %struct.dt_image_import_t, ptr %26, i32 0, i32 1
  store ptr %25, ptr %27, align 8, !tbaa !66
  %28 = load i32, ptr %4, align 4, !tbaa !6
  %29 = load ptr, ptr %6, align 8, !tbaa !64
  %30 = getelementptr inbounds nuw %struct.dt_image_import_t, ptr %29, i32 0, i32 0
  store i32 %28, ptr %30, align 8, !tbaa !68
  %31 = load ptr, ptr %7, align 8, !tbaa !10
  store ptr %31, ptr %3, align 8
  store i32 1, ptr %8, align 4
  br label %32

32:                                               ; preds = %19, %17, %12
  call void @llvm.lifetime.end.p0(i64 8, ptr %7) #6
  call void @llvm.lifetime.end.p0(i64 8, ptr %6) #6
  %33 = load ptr, ptr %3, align 8
  ret ptr %33
}