; Function Attrs: nounwind uwtable
define ptr @dt_image_import_job_create(i32 noundef %0, ptr noundef %1) local_unnamed_addr #0 {
  %3 = tail call ptr (ptr, ptr, ...) @dt_control_job_create(ptr noundef nonnull @dt_image_import_job_run, ptr noundef nonnull @.str.1) #8
  %.not = icmp eq ptr %3, null
  br i1 %.not, label %11, label %4

4:                                                ; preds = %2
  %5 = tail call noalias dereferenceable_or_null(16) ptr @calloc(i64 noundef 1, i64 noundef 16) #9
  %.not13 = icmp eq ptr %5, null
  br i1 %.not13, label %6, label %7

6:                                                ; preds = %4
  tail call void @dt_control_job_dispose(ptr noundef nonnull %3) #8
  br label %11

7:                                                ; preds = %4
  %8 = tail call ptr @dcgettext(ptr noundef null, ptr noundef nonnull @.str.1, i32 noundef 5) #8
  tail call void @dt_control_job_add_progress(ptr noundef nonnull %3, ptr noundef %8, i32 noundef 0) #8
  tail call void @dt_control_job_set_params(ptr noundef nonnull %3, ptr noundef nonnull %5, ptr noundef nonnull @dt_image_import_job_cleanup) #8
  %9 = tail call noalias ptr @g_strdup(ptr noundef %1) #8
  %10 = getelementptr inbounds nuw i8, ptr %5, i64 8
  store ptr %9, ptr %10, align 8, !tbaa !55
  store i32 %0, ptr %5, align 8, !tbaa !57
  br label %11

11:                                               ; preds = %2, %7, %6
  %.0 = phi ptr [ %3, %7 ], [ null, %6 ], [ null, %2 ]
  ret ptr %.0
}